target datalayout = "e-m:e-p270:32:32-p271:32:32-p272:64:64-i64:64-i128:128-f80:128-n8:16:32:64-S128"
target triple = "x86_64-pc-linux-gnu"

%union.anon.2 = type { i64 }

; Function Attrs: inlinehint nounwind uwtable
define internal i64 @DatumGetInt64(i64 noundef %0) #2 {
  %2 = alloca i64, align 8
  store i64 %0, ptr %2, align 8
  %3 = load i64, ptr %2, align 8
  ret i64 %3
}

; Function Attrs: inlinehint nounwind uwtable
define internal double @DatumGetFloat8(i64 noundef %0) #2 {
  %2 = alloca i64, align 8
  %3 = alloca %union.anon.2, align 8
  store i64 %0, ptr %2, align 8
  call void @llvm.lifetime.start.p0(i64 8, ptr %3) #7
  %4 = load i64, ptr %2, align 8
  %5 = call i64 @DatumGetInt64(i64 noundef %4)
  store i64 %5, ptr %3, align 8
  %6 = load double, ptr %3, align 8
  call void @llvm.lifetime.end.p0(i64 8, ptr %3) #7
  ret double %6
}

; Function Attrs: nounwind uwtable
define internal i32 @length_hist_bsearch(ptr noundef %0, i32 noundef %1, double noundef %2, i1 noundef zeroext %3) #0 {
  %5 = alloca ptr, align 8
  %6 = alloca i32, align 4
  %7 = alloca double, align 8
  %8 = alloca i8, align 1
  %9 = alloca i32, align 4
  %10 = alloca i32, align 4
  %11 = alloca i32, align 4
  %12 = alloca double, align 8
  store ptr %0, ptr %5, align 8
  store i32 %1, ptr %6, align 4
  store double %2, ptr %7, align 8
  %13 = zext i1 %3 to i8
  store i8 %13, ptr %8, align 1
  call void @llvm.lifetime.start.p0(i64 4, ptr %9) #7
  store i32 -1, ptr %9, align 4
  call void @llvm.lifetime.start.p0(i64 4, ptr %10) #7
  %14 = load i32, ptr %6, align 4
  %15 = sub i32 %14, 1
  store i32 %15, ptr %10, align 4
  call void @llvm.lifetime.start.p0(i64 4, ptr %11) #7
  br label %16

16:                                               ; preds = %47, %4
  %17 = load i32, ptr %9, align 4
  %18 = load i32, ptr %10, align 4
  %19 = icmp slt i32 %17, %18
  br i1 %19, label %20, label %48

20:                                               ; preds = %16
  call void @llvm.lifetime.start.p0(i64 8, ptr %12) #7
  %21 = load i32, ptr %9, align 4
  %22 = load i32, ptr %10, align 4
  %23 = add i32 %21, %22
  %24 = add i32 %23, 1
  %25 = sdiv i32 %24, 2
  store i32 %25, ptr %11, align 4
  %26 = load ptr, ptr %5, align 8
  %27 = load i32, ptr %11, align 4
  %28 = sext i32 %27 to i64
  %29 = getelementptr inbounds i64, ptr %26, i64 %28
  %30 = load i64, ptr %29, align 8
  %31 = call double @DatumGetFloat8(i64 noundef %30)
  store double %31, ptr %12, align 8
  %32 = load double, ptr %12, align 8
  %33 = load double, ptr %7, align 8
  %34 = fcmp olt double %32, %33
  br i1 %34, label %42, label %35

35:                                               ; preds = %20
  %36 = load i8, ptr %8, align 1, !range !4, !noundef !5
  %37 = trunc i8 %36 to i1
  br i1 %37, label %38, label %44

38:                                               ; preds = %35
  %39 = load double, ptr %12, align 8
  %40 = load double, ptr %7, align 8
  %41 = fcmp ole double %39, %40
  br i1 %41, label %42, label %44

42:                                               ; preds = %38, %20
  %43 = load i32, ptr %11, align 4
  store i32 %43, ptr %9, align 4
  br label %47

44:                                               ; preds = %38, %35
  %45 = load i32, ptr %11, align 4
  %46 = sub i32 %45, 1
  store i32 %46, ptr %10, align 4
  br label %47

47:                                               ; preds = %44, %42
  call void @llvm.lifetime.end.p0(i64 8, ptr %12) #7
  br label %16, !llvm.loop !12

48:                                               ; preds = %16
  %49 = load i32, ptr %9, align 4
  call void @llvm.lifetime.end.p0(i64 4, ptr %11) #7
  call void @llvm.lifetime.end.p0(i64 4, ptr %10) #7
  call void @llvm.lifetime.end.p0(i64 4, ptr %9) #7
  ret i32 %49
}

; Function Attrs: nounwind uwtable
define internal double @calc_length_hist_frac(ptr noundef %0, i32 noundef %1, double noundef %2, double noundef %3, i1 noundef zeroext %4) #0 {
  %6 = alloca double, align 8
  %7 = alloca ptr, align 8
  %8 = alloca i32, align 4
  %9 = alloca double, align 8
  %10 = alloca double, align 8
  %11 = alloca i8, align 1
  %12 = alloca double, align 8
  %13 = alloca double, align 8
  %14 = alloca double, align 8
  %15 = alloca double, align 8
  %16 = alloca double, align 8
  %17 = alloca double, align 8
  %18 = alloca i32, align 4
  %19 = alloca double, align 8
  %20 = alloca i32, align 4
  %21 = alloca double, align 8
  store ptr %0, ptr %7, align 8
  store i32 %1, ptr %8, align 4
  store double %2, ptr %9, align 8
  store double %3, ptr %10, align 8
  %22 = zext i1 %4 to i8
  store i8 %22, ptr %11, align 1
  call void @llvm.lifetime.start.p0(i64 8, ptr %12) #7
  call void @llvm.lifetime.start.p0(i64 8, ptr %13) #7
  call void @llvm.lifetime.start.p0(i64 8, ptr %14) #7
  call void @llvm.lifetime.start.p0(i64 8, ptr %15) #7
  call void @llvm.lifetime.start.p0(i64 8, ptr %16) #7
  call void @llvm.lifetime.start.p0(i64 8, ptr %17) #7
  call void @llvm.lifetime.start.p0(i64 4, ptr %18) #7
  call void @llvm.lifetime.start.p0(i64 8, ptr %19) #7
  %23 = load double, ptr %10, align 8
  %24 = fcmp olt double %23, 0.000000e+00
  br i1 %24, label %25, label %26

25:                                               ; preds = %5
  store double 0.000000e+00, ptr %6, align 8
  store i32 1, ptr %20, align 4
  br label %218

26:                                               ; preds = %5
  %27 = load double, ptr %10, align 8
  %28 = call i1 @llvm.is.fpclass.f64(double %27, i32 516)
  br i1 %28, label %29, label %33

29:                                               ; preds = %26
  %30 = load i8, ptr %11, align 1, !range !4, !noundef !5
  %31 = trunc i8 %30 to i1
  br i1 %31, label %32, label %33

32:                                               ; preds = %29
  store double 1.000000e+00, ptr %6, align 8
  store i32 1, ptr %20, align 4
  br label %218

33:                                               ; preds = %29, %26
  %34 = load ptr, ptr %7, align 8
  %35 = load i32, ptr %8, align 4
  %36 = load double, ptr %9, align 8
  %37 = load i8, ptr %11, align 1, !range !4, !noundef !5
  %38 = trunc i8 %37 to i1
  %39 = call i32 @length_hist_bsearch(ptr noundef %34, i32 noundef %35, double noundef %36, i1 noundef zeroext %38)
  store i32 %39, ptr %18, align 4
  %40 = load i32, ptr %18, align 4
  %41 = load i32, ptr %8, align 4
  %42 = sub i32 %41, 1
  %43 = icmp sge i32 %40, %42
  br i1 %43, label %44, label %45

44:                                               ; preds = %33
  store double 1.000000e+00, ptr %6, align 8
  store i32 1, ptr %20, align 4
  br label %218

45:                                               ; preds = %33
  %46 = load i32, ptr %18, align 4
  %47 = icmp slt i32 %46, 0
  br i1 %47, label %48, label %49

48:                                               ; preds = %45
  store i32 0, ptr %18, align 4
  store double 0.000000e+00, ptr %17, align 8
  br label %65

49:                                               ; preds = %45
  %50 = load double, ptr %9, align 8
  %51 = load ptr, ptr %7, align 8
  %52 = load i32, ptr %18, align 4
  %53 = sext i32 %52 to i64
  %54 = getelementptr inbounds i64, ptr %51, i64 %53
  %55 = load i64, ptr %54, align 8
  %56 = call double @DatumGetFloat8(i64 noundef %55)
  %57 = load ptr, ptr %7, align 8
  %58 = load i32, ptr %18, align 4
  %59 = add i32 %58, 1
  %60 = sext i32 %59 to i64
  %61 = getelementptr inbounds i64, ptr %57, i64 %60
  %62 = load i64, ptr %61, align 8
  %63 = call double @DatumGetFloat8(i64 noundef %62)
  %64 = call double @get_len_position(double noundef %50, double noundef %56, double noundef %63)
  store double %64, ptr %17, align 8
  br label %65

65:                                               ; preds = %49, %48
  %66 = load i32, ptr %18, align 4
  %67 = sitofp i32 %66 to double
  %68 = load double, ptr %17, align 8
  %69 = fadd double %67, %68
  %70 = load i32, ptr %8, align 4
  %71 = sub i32 %70, 1
  %72 = sitofp i32 %71 to double
  %73 = fdiv double %69, %72
  store double %73, ptr %16, align 8
  %74 = load double, ptr %9, align 8
  store double %74, ptr %14, align 8
  %75 = load double, ptr %10, align 8
  %76 = load double, ptr %9, align 8
  %77 = fcmp oeq double %75, %76
  br i1 %77, label %78, label %80

78:                                               ; preds = %65
  %79 = load double, ptr %16, align 8
  store double %79, ptr %6, align 8
  store i32 1, ptr %20, align 4
  br label %218

80:                                               ; preds = %65
  store double 0.000000e+00, ptr %19, align 8
  br label %81

81:                                               ; preds = %134, %80
  %82 = load i32, ptr %18, align 4
  %83 = load i32, ptr %8, align 4
  %84 = sub i32 %83, 1
  %85 = icmp slt i32 %82, %84
  br i1 %85, label %86, label %137

86:                                               ; preds = %81
  call void @llvm.lifetime.start.p0(i64 8, ptr %21) #7
  %87 = load ptr, ptr %7, align 8
  %88 = load i32, ptr %18, align 4
  %89 = add i32 %88, 1
  %90 = sext i32 %89 to i64
  %91 = getelementptr inbounds i64, ptr %87, i64 %90
  %92 = load i64, ptr %91, align 8
  %93 = call double @DatumGetFloat8(i64 noundef %92)
  store double %93, ptr %21, align 8
  %94 = load double, ptr %21, align 8
  %95 = load double, ptr %10, align 8
  %96 = fcmp olt double %94, %95
  br i1 %96, label %105, label %97

97:                                               ; preds = %86
  %98 = load i8, ptr %11, align 1, !range !4, !noundef !5
  %99 = trunc i8 %98 to i1
  br i1 %99, label %100, label %104

100:                                              ; preds = %97
  %101 = load double, ptr %21, align 8
  %102 = load double, ptr %10, align 8
  %103 = fcmp ole double %101, %102
  br i1 %103, label %105, label %104

104:                                              ; preds = %100, %97
  store i32 2, ptr %20, align 4
  br label %131

105:                                              ; preds = %100, %86
  %106 = load double, ptr %14, align 8
  store double %106, ptr %13, align 8
  %107 = load double, ptr %16, align 8
  store double %107, ptr %15, align 8
  %108 = load double, ptr %21, align 8
  store double %108, ptr %14, align 8
  %109 = load i32, ptr %18, align 4
  %110 = sitofp i32 %109 to double
  %111 = load i32, ptr %8, align 4
  %112 = sub i32 %111, 1
  %113 = sitofp i32 %112 to double
  %114 = fdiv double %110, %113
  store double %114, ptr %16, align 8
  %115 = load double, ptr %15, align 8
  %116 = fcmp ogt double %115, 0.000000e+00
  br i1 %116, label %120, label %117

117:                                              ; preds = %105
  %118 = load double, ptr %16, align 8
  %119 = fcmp ogt double %118, 0.000000e+00
  br i1 %119, label %120, label %130

120:                                              ; preds = %117, %105
  %121 = load double, ptr %16, align 8
  %122 = load double, ptr %15, align 8
  %123 = fadd double %121, %122
  %124 = fmul double 5.000000e-01, %123
  %125 = load double, ptr %14, align 8
  %126 = load double, ptr %13, align 8
  %127 = fsub double %125, %126
  %128 = load double, ptr %19, align 8
  %129 = call double @llvm.fmuladd.f64(double %124, double %127, double %128)
  store double %129, ptr %19, align 8
  br label %130

130:                                              ; preds = %120, %117
  store i32 0, ptr %20, align 4
  br label %131

131:                                              ; preds = %130, %104
  call void @llvm.lifetime.end.p0(i64 8, ptr %21) #7
  %132 = load i32, ptr %20, align 4
  switch i32 %132, label %220 [
    i32 0, label %133
    i32 2, label %137
  ]

133:                                              ; preds = %131
  br label %134

134:                                              ; preds = %133
  %135 = load i32, ptr %18, align 4
  %136 = add i32 %135, 1
  store i32 %136, ptr %18, align 4
  br label %81, !llvm.loop !11

137:                                              ; preds = %131, %81
  %138 = load double, ptr %14, align 8
  store double %138, ptr %13, align 8
  %139 = load double, ptr %16, align 8
  store double %139, ptr %15, align 8
  %140 = load double, ptr %10, align 8
  store double %140, ptr %14, align 8
  %141 = load i32, ptr %18, align 4
  %142 = load i32, ptr %8, align 4
  %143 = sub i32 %142, 1
  %144 = icmp sge i32 %141, %143
  br i1 %144, label %145, label %146

145:                                              ; preds = %137
  store double 0.000000e+00, ptr %17, align 8
  br label %179

146:                                              ; preds = %137
  %147 = load ptr, ptr %7, align 8
  %148 = load i32, ptr %18, align 4
  %149 = sext i32 %148 to i64
  %150 = getelementptr inbounds i64, ptr %147, i64 %149
  %151 = load i64, ptr %150, align 8
  %152 = call double @DatumGetFloat8(i64 noundef %151)
  %153 = load ptr, ptr %7, align 8
  %154 = load i32, ptr %18, align 4
  %155 = add i32 %154, 1
  %156 = sext i32 %155 to i64
  %157 = getelementptr inbounds i64, ptr %153, i64 %156
  %158 = load i64, ptr %157, align 8
  %159 = call double @DatumGetFloat8(i64 noundef %158)
  %160 = fcmp oeq double %152, %159
  br i1 %160, label %161, label %162

161:                                              ; preds = %146
  store double 0.000000e+00, ptr %17, align 8
  br label %178

162:                                              ; preds = %146
  %163 = load double, ptr %10, align 8
  %164 = load ptr, ptr %7, align 8
  %165 = load i32, ptr %18, align 4
  %166 = sext i32 %165 to i64
  %167 = getelementptr inbounds i64, ptr %164, i64 %166
  %168 = load i64, ptr %167, align 8
  %169 = call double @DatumGetFloat8(i64 noundef %168)
  %170 = load ptr, ptr %7, align 8
  %171 = load i32, ptr %18, align 4
  %172 = add i32 %171, 1
  %173 = sext i32 %172 to i64
  %174 = getelementptr inbounds i64, ptr %170, i64 %173
  %175 = load i64, ptr %174, align 8
  %176 = call double @DatumGetFloat8(i64 noundef %175)
  %177 = call double @get_len_position(double noundef %163, double noundef %169, double noundef %176)
  store double %177, ptr %17, align 8
  br label %178

178:                                              ; preds = %162, %161
  br label %179

179:                                              ; preds = %178, %145
  %180 = load i32, ptr %18, align 4
  %181 = sitofp i32 %180 to double
  %182 = load double, ptr %17, align 8
  %183 = fadd double %181, %182
  %184 = load i32, ptr %8, align 4
  %185 = sub i32 %184, 1
  %186 = sitofp i32 %185 to double
  %187 = fdiv double %183, %186
  store double %187, ptr %16, align 8
  %188 = load double, ptr %15, align 8
  %189 = fcmp ogt double %188, 0.000000e+00
  br i1 %189, label %193, label %190

190:                                              ; preds = %179
  %191 = load double, ptr %16, align 8
  %192 = fcmp ogt double %191, 0.000000e+00
  br i1 %192, label %193, label %203

193:                                              ; preds = %190, %179
  %194 = load double, ptr %16, align 8
  %195 = load double, ptr %15, align 8
  %196 = fadd double %194, %195
  %197 = fmul double 5.000000e-01, %196
  %198 = load double, ptr %14, align 8
  %199 = load double, ptr %13, align 8
  %200 = fsub double %198, %199
  %201 = load double, ptr %19, align 8
  %202 = call double @llvm.fmuladd.f64(double %197, double %200, double %201)
  store double %202, ptr %19, align 8
  br label %203

203:                                              ; preds = %193, %190
  %204 = load double, ptr %19, align 8
  %205 = call i1 @llvm.is.fpclass.f64(double %204, i32 516)
  br i1 %205, label %206, label %210

206:                                              ; preds = %203
  %207 = load double, ptr %10, align 8
  %208 = call i1 @llvm.is.fpclass.f64(double %207, i32 516)
  br i1 %208, label %209, label %210

209:                                              ; preds = %206
  store double 5.000000e-01, ptr %12, align 8
  br label %216

210:                                              ; preds = %206, %203
  %211 = load double, ptr %19, align 8
  %212 = load double, ptr %10, align 8
  %213 = load double, ptr %9, align 8
  %214 = fsub double %212, %213
  %215 = fdiv double %211, %214
  store double %215, ptr %12, align 8
  br label %216

216:                                              ; preds = %210, %209
  %217 = load double, ptr %12, align 8
  store double %217, ptr %6, align 8
  store i32 1, ptr %20, align 4
  br label %218

218:                                              ; preds = %216, %78, %44, %32, %25
  call void @llvm.lifetime.end.p0(i64 8, ptr %19) #7
  call void @llvm.lifetime.end.p0(i64 4, ptr %18) #7
  call void @llvm.lifetime.end.p0(i64 8, ptr %17) #7
  call void @llvm.lifetime.end.p0(i64 8, ptr %16) #7
  call void @llvm.lifetime.end.p0(i64 8, ptr %15) #7
  call void @llvm.lifetime.end.p0(i64 8, ptr %14) #7
  call void @llvm.lifetime.end.p0(i64 8, ptr %13) #7
  call void @llvm.lifetime.end.p0(i64 8, ptr %12) #7
  %219 = load double, ptr %6, align 8
  ret double %219

220:                                              ; preds = %131
  unreachable
}