; Function Attrs: nofree norecurse nosync nounwind memory(argmem: read) uwtable
define internal fastcc double @calc_length_hist_frac(ptr noundef readonly captures(none) %0, i32 noundef %1, double noundef %2, double noundef %3, i1 noundef zeroext %4) unnamed_addr #6 {
  %6 = fcmp olt double %3, 0.000000e+00
  br i1 %6, label %length_hist_bsearch.exit.thread, label %7

7:                                                ; preds = %5
  %8 = tail call double @llvm.fabs.f64(double %3)
  %9 = fcmp une double %8, 0x7FF0000000000000
  %.not98 = xor i1 %4, true
  %brmerge = or i1 %9, %.not98
  br i1 %brmerge, label %10, label %length_hist_bsearch.exit.thread

10:                                               ; preds = %7
  %11 = add i32 %1, -1
  %12 = icmp sgt i32 %11, -1
  br i1 %12, label %.lr.ph.i, label %length_hist_bsearch.exit.thread

.lr.ph.i:                                         ; preds = %10
  br i1 %4, label %.lr.ph.split.i, label %.lr.ph.split.us.i

.lr.ph.split.us.i:                                ; preds = %.lr.ph.i, %.lr.ph.split.us.i
  %.021.us.i = phi i32 [ %.1.us.i, %.lr.ph.split.us.i ], [ -1, %.lr.ph.i ]
  %.01420.us.i = phi i32 [ %.115.us.i, %.lr.ph.split.us.i ], [ %11, %.lr.ph.i ]
  %13 = add nsw i32 %.021.us.i, 1
  %14 = add i32 %13, %.01420.us.i
  %15 = sdiv i32 %14, 2
  %16 = sext i32 %15 to i64
  %17 = getelementptr inbounds i64, ptr %0, i64 %16
  %18 = load double, ptr %17, align 8
  %19 = fcmp olt double %18, %2
  %20 = add nsw i32 %15, -1
  %.115.us.i = select i1 %19, i32 %.01420.us.i, i32 %20
  %.1.us.i = select i1 %19, i32 %15, i32 %.021.us.i
  %21 = icmp slt i32 %.1.us.i, %.115.us.i
  br i1 %21, label %.lr.ph.split.us.i, label %length_hist_bsearch.exit, !llvm.loop !11

.lr.ph.split.i:                                   ; preds = %.lr.ph.i, %.lr.ph.split.i
  %.021.i = phi i32 [ %.1.i, %.lr.ph.split.i ], [ -1, %.lr.ph.i ]
  %.01420.i = phi i32 [ %.115.i, %.lr.ph.split.i ], [ %11, %.lr.ph.i ]
  %22 = add nsw i32 %.021.i, 1
  %23 = add i32 %22, %.01420.i
  %24 = sdiv i32 %23, 2
  %25 = sext i32 %24 to i64
  %26 = getelementptr inbounds i64, ptr %0, i64 %25
  %27 = load double, ptr %26, align 8
  %28 = add nsw i32 %24, -1
  %29 = fcmp ole double %27, %2
  %.115.i = select i1 %29, i32 %.01420.i, i32 %28
  %.1.i = select i1 %29, i32 %24, i32 %.021.i
  %30 = icmp slt i32 %.1.i, %.115.i
  br i1 %30, label %.lr.ph.split.i, label %length_hist_bsearch.exit, !llvm.loop !11

length_hist_bsearch.exit:                         ; preds = %.lr.ph.split.us.i, %.lr.ph.split.i
  %.0.lcssa.i = phi i32 [ %.1.i, %.lr.ph.split.i ], [ %.1.us.i, %.lr.ph.split.us.i ]
  %.not = icmp slt i32 %.0.lcssa.i, %11
  br i1 %.not, label %31, label %length_hist_bsearch.exit.thread

31:                                               ; preds = %length_hist_bsearch.exit
  %32 = icmp slt i32 %.0.lcssa.i, 0
  br i1 %32, label %get_len_position.exit, label %33

33:                                               ; preds = %31
  %34 = zext nneg i32 %.0.lcssa.i to i64
  %35 = getelementptr inbounds nuw i64, ptr %0, i64 %34
  %36 = load double, ptr %35, align 8
  %37 = getelementptr inbounds nuw i8, ptr %35, i64 8
  %38 = load double, ptr %37, align 8
  %39 = tail call double @llvm.fabs.f64(double %36)
  %40 = fcmp oeq double %39, 0x7FF0000000000000
  %41 = tail call double @llvm.fabs.f64(double %38)
  %42 = fcmp oeq double %41, 0x7FF0000000000000
  %or.cond.i = or i1 %40, %42
  br i1 %or.cond.i, label %51, label %43

43:                                               ; preds = %33
  %44 = tail call double @llvm.fabs.f64(double %2)
  %45 = fcmp oeq double %44, 0x7FF0000000000000
  br i1 %45, label %get_len_position.exit, label %46

46:                                               ; preds = %43
  %47 = fsub double %38, %2
  %48 = fsub double %38, %36
  %49 = fdiv double %47, %48
  %50 = fsub double 1.000000e+00, %49
  br label %get_len_position.exit

51:                                               ; preds = %33
  %.not.i = xor i1 %40, true
  %or.cond14.i = or i1 %42, %.not.i
  br i1 %or.cond14.i, label %52, label %get_len_position.exit

52:                                               ; preds = %51
  %or.cond16.i = and i1 %40, %42
  br i1 %or.cond16.i, label %get_len_position.exit, label %53

53:                                               ; preds = %52
  br label %get_len_position.exit

get_len_position.exit:                            ; preds = %53, %52, %51, %46, %43, %31
  %.082 = phi double [ 0.000000e+00, %31 ], [ 5.000000e-01, %53 ], [ %50, %46 ], [ 5.000000e-01, %43 ], [ 1.000000e+00, %51 ], [ 0.000000e+00, %52 ]
  %.080 = phi i32 [ 0, %31 ], [ %.0.lcssa.i, %53 ], [ %.0.lcssa.i, %46 ], [ %.0.lcssa.i, %43 ], [ %.0.lcssa.i, %51 ], [ %.0.lcssa.i, %52 ]
  %54 = uitofp nneg i32 %.080 to double
  %55 = fadd double %.082, %54
  %56 = sitofp i32 %11 to double
  %57 = fdiv double %55, %56
  %58 = fcmp oeq double %3, %2
  br i1 %58, label %length_hist_bsearch.exit.thread, label %.preheader

.preheader:                                       ; preds = %get_len_position.exit
  %59 = icmp slt i32 %.080, %11
  br i1 %59, label %.lr.ph.preheader, label %.loopexit

.lr.ph.preheader:                                 ; preds = %.preheader
  %60 = zext nneg i32 %.080 to i64
  br label %.lr.ph

.lr.ph:                                           ; preds = %.lr.ph.preheader, %76
  %indvars.iv = phi i64 [ %60, %.lr.ph.preheader ], [ %indvars.iv.next, %76 ]
  %.079128 = phi double [ 0.000000e+00, %.lr.ph.preheader ], [ %.2, %76 ]
  %.084126 = phi double [ %57, %.lr.ph.preheader ], [ %68, %76 ]
  %.087125 = phi double [ %2, %.lr.ph.preheader ], [ %62, %76 ]
  %indvars.iv.next = add nuw nsw i64 %indvars.iv, 1
  %61 = getelementptr inbounds nuw i64, ptr %0, i64 %indvars.iv.next
  %62 = load double, ptr %61, align 8
  %63 = fcmp uge double %62, %3
  %64 = fcmp ugt double %62, %3
  %or.cond100 = or i1 %64, %.not98
  %or.cond115 = and i1 %63, %or.cond100
  %65 = trunc nuw i64 %indvars.iv to i32
  br i1 %or.cond115, label %79, label %66

66:                                               ; preds = %.lr.ph
  %67 = uitofp nneg i32 %65 to double
  %68 = fdiv double %67, %56
  %69 = fcmp ogt double %.084126, 0.000000e+00
  %70 = fcmp ogt double %68, 0.000000e+00
  %or.cond = or i1 %69, %70
  br i1 %or.cond, label %71, label %76

71:                                               ; preds = %66
  %72 = fadd double %.084126, %68
  %73 = fmul double %72, 5.000000e-01
  %74 = fsub double %62, %.087125
  %75 = tail call double @llvm.fmuladd.f64(double %73, double %74, double %.079128)
  br label %76

76:                                               ; preds = %71, %66
  %.2 = phi double [ %75, %71 ], [ %.079128, %66 ]
  %77 = trunc nuw i64 %indvars.iv.next to i32
  %78 = icmp sgt i32 %11, %77
  br i1 %78, label %.lr.ph, label %.loopexit, !llvm.loop !12

79:                                               ; preds = %.lr.ph
  %80 = and i64 %indvars.iv, 4294967295
  %81 = getelementptr inbounds nuw i64, ptr %0, i64 %80
  %82 = load double, ptr %81, align 8
  %83 = getelementptr inbounds nuw i8, ptr %81, i64 8
  %84 = load double, ptr %83, align 8
  %85 = fcmp oeq double %82, %84
  br i1 %85, label %.loopexit, label %86

86:                                               ; preds = %79
  %87 = tail call fastcc double @get_len_position(double noundef %3, double noundef %82, double noundef %84)
  br label %.loopexit

.loopexit:                                        ; preds = %76, %.preheader, %79, %86
  %.087124 = phi double [ %.087125, %86 ], [ %.087125, %79 ], [ %2, %.preheader ], [ %62, %76 ]
  %.084122 = phi double [ %.084126, %86 ], [ %.084126, %79 ], [ %57, %.preheader ], [ %68, %76 ]
  %.181120 = phi i32 [ %65, %86 ], [ %65, %79 ], [ %.080, %.preheader ], [ %77, %76 ]
  %.079118 = phi double [ %.079128, %86 ], [ %.079128, %79 ], [ 0.000000e+00, %.preheader ], [ %.2, %76 ]
  %.183 = phi double [ %87, %86 ], [ 0.000000e+00, %79 ], [ 0.000000e+00, %.preheader ], [ 0.000000e+00, %76 ]
  %88 = uitofp nneg i32 %.181120 to double
  %89 = fadd double %.183, %88
  %90 = fdiv double %89, %56
  %91 = fcmp ogt double %.084122, 0.000000e+00
  %92 = fcmp ogt double %90, 0.000000e+00
  %or.cond3 = select i1 %91, i1 true, i1 %92
  br i1 %or.cond3, label %93, label %98

93:                                               ; preds = %.loopexit
  %94 = fadd double %.084122, %90
  %95 = fmul double %94, 5.000000e-01
  %96 = fsub double %3, %.087124
  %97 = tail call double @llvm.fmuladd.f64(double %95, double %96, double %.079118)
  br label %98

98:                                               ; preds = %.loopexit, %93
  %.4 = phi double [ %97, %93 ], [ %.079118, %.loopexit ]
  %99 = tail call double @llvm.fabs.f64(double %.4)
  %100 = fcmp une double %99, 0x7FF0000000000000
  %brmerge103 = or i1 %9, %100
  %101 = fsub double %3, %2
  %102 = fdiv double %.4, %101
  %.090 = select i1 %brmerge103, double %102, double 5.000000e-01
  br label %length_hist_bsearch.exit.thread

length_hist_bsearch.exit.thread:                  ; preds = %10, %get_len_position.exit, %length_hist_bsearch.exit, %7, %5, %98
  %.0 = phi double [ %.090, %98 ], [ 0.000000e+00, %5 ], [ 1.000000e+00, %7 ], [ 1.000000e+00, %length_hist_bsearch.exit ], [ %57, %get_len_position.exit ], [ 1.000000e+00, %10 ]
  ret double %.0
}